target datalayout = "e-m:e-p270:32:32-p271:32:32-p272:64:64-i64:64-i128:128-f80:128-n8:16:32:64-S128"
target triple = "x86_64-pc-linux-gnu"

@.str = private unnamed_addr constant [4 x i8] c"aig\00", align 1
@.str.1 = private unnamed_addr constant [4 x i8] c"baf\00", align 1
@.str.2 = private unnamed_addr constant [6 x i8] c"bblif\00", align 1
@.str.3 = private unnamed_addr constant [5 x i8] c"blif\00", align 1
@.str.4 = private unnamed_addr constant [6 x i8] c"bench\00", align 1
@.str.5 = private unnamed_addr constant [4 x i8] c"cnf\00", align 1
@.str.6 = private unnamed_addr constant [4 x i8] c"dot\00", align 1
@.str.7 = private unnamed_addr constant [5 x i8] c"edif\00", align 1
@.str.8 = private unnamed_addr constant [4 x i8] c"eqn\00", align 1
@.str.9 = private unnamed_addr constant [4 x i8] c"gml\00", align 1
@.str.10 = private unnamed_addr constant [5 x i8] c"list\00", align 1
@.str.11 = private unnamed_addr constant [3 x i8] c"mv\00", align 1
@.str.12 = private unnamed_addr constant [4 x i8] c"pla\00", align 1
@.str.13 = private unnamed_addr constant [4 x i8] c"smv\00", align 1
@.str.14 = private unnamed_addr constant [2 x i8] c"v\00", align 1

; Function Attrs: nounwind uwtable
define i32 @Io_ReadFileType(ptr noundef %0) #0 {
  %2 = alloca i32, align 4
  %3 = alloca ptr, align 8
  %4 = alloca ptr, align 8
  store ptr %0, ptr %3, align 8
  %5 = load ptr, ptr %3, align 8
  %6 = icmp eq ptr %5, null
  br i1 %6, label %7, label %8

7:                                                ; preds = %1
  store i32 0, ptr %2, align 4
  br label %90

8:                                                ; preds = %1
  %9 = load ptr, ptr %3, align 8
  %10 = call ptr @Extra_FileNameExtension(ptr noundef %9)
  store ptr %10, ptr %4, align 8
  %11 = load ptr, ptr %4, align 8
  %12 = icmp eq ptr %11, null
  br i1 %12, label %13, label %14

13:                                               ; preds = %8
  store i32 0, ptr %2, align 4
  br label %90

14:                                               ; preds = %8
  %15 = load ptr, ptr %4, align 8
  %16 = call i32 @strcmp(ptr noundef %15, ptr noundef @.str) #8
  %17 = icmp ne i32 %16, 0
  br i1 %17, label %19, label %18

18:                                               ; preds = %14
  store i32 1, ptr %2, align 4
  br label %90

19:                                               ; preds = %14
  %20 = load ptr, ptr %4, align 8
  %21 = call i32 @strcmp(ptr noundef %20, ptr noundef @.str.1) #8
  %22 = icmp ne i32 %21, 0
  br i1 %22, label %24, label %23

23:                                               ; preds = %19
  store i32 2, ptr %2, align 4
  br label %90

24:                                               ; preds = %19
  %25 = load ptr, ptr %4, align 8
  %26 = call i32 @strcmp(ptr noundef %25, ptr noundef @.str.2) #8
  %27 = icmp ne i32 %26, 0
  br i1 %27, label %29, label %28

28:                                               ; preds = %24
  store i32 3, ptr %2, align 4
  br label %90

29:                                               ; preds = %24
  %30 = load ptr, ptr %4, align 8
  %31 = call i32 @strcmp(ptr noundef %30, ptr noundef @.str.3) #8
  %32 = icmp ne i32 %31, 0
  br i1 %32, label %34, label %33

33:                                               ; preds = %29
  store i32 4, ptr %2, align 4
  br label %90

34:                                               ; preds = %29
  %35 = load ptr, ptr %4, align 8
  %36 = call i32 @strcmp(ptr noundef %35, ptr noundef @.str.4) #8
  %37 = icmp ne i32 %36, 0
  br i1 %37, label %39, label %38

38:                                               ; preds = %34
  store i32 6, ptr %2, align 4
  br label %90

39:                                               ; preds = %34
  %40 = load ptr, ptr %4, align 8
  %41 = call i32 @strcmp(ptr noundef %40, ptr noundef @.str.5) #8
  %42 = icmp ne i32 %41, 0
  br i1 %42, label %44, label %43

43:                                               ; preds = %39
  store i32 8, ptr %2, align 4
  br label %90

44:                                               ; preds = %39
  %45 = load ptr, ptr %4, align 8
  %46 = call i32 @strcmp(ptr noundef %45, ptr noundef @.str.6) #8
  %47 = icmp ne i32 %46, 0
  br i1 %47, label %49, label %48

48:                                               ; preds = %44
  store i32 9, ptr %2, align 4
  br label %90

49:                                               ; preds = %44
  %50 = load ptr, ptr %4, align 8
  %51 = call i32 @strcmp(ptr noundef %50, ptr noundef @.str.7) #8
  %52 = icmp ne i32 %51, 0
  br i1 %52, label %54, label %53

53:                                               ; preds = %49
  store i32 10, ptr %2, align 4
  br label %90

54:                                               ; preds = %49
  %55 = load ptr, ptr %4, align 8
  %56 = call i32 @strcmp(ptr noundef %55, ptr noundef @.str.8) #8
  %57 = icmp ne i32 %56, 0
  br i1 %57, label %59, label %58

58:                                               ; preds = %54
  store i32 11, ptr %2, align 4
  br label %90

59:                                               ; preds = %54
  %60 = load ptr, ptr %4, align 8
  %61 = call i32 @strcmp(ptr noundef %60, ptr noundef @.str.9) #8
  %62 = icmp ne i32 %61, 0
  br i1 %62, label %64, label %63

63:                                               ; preds = %59
  store i32 12, ptr %2, align 4
  br label %90

64:                                               ; preds = %59
  %65 = load ptr, ptr %4, align 8
  %66 = call i32 @strcmp(ptr noundef %65, ptr noundef @.str.10) #8
  %67 = icmp ne i32 %66, 0
  br i1 %67, label %69, label %68

68:                                               ; preds = %64
  store i32 14, ptr %2, align 4
  br label %90

69:                                               ; preds = %64
  %70 = load ptr, ptr %4, align 8
  %71 = call i32 @strcmp(ptr noundef %70, ptr noundef @.str.11) #8
  %72 = icmp ne i32 %71, 0
  br i1 %72, label %74, label %73

73:                                               ; preds = %69
  store i32 5, ptr %2, align 4
  br label %90

74:                                               ; preds = %69
  %75 = load ptr, ptr %4, align 8
  %76 = call i32 @strcmp(ptr noundef %75, ptr noundef @.str.12) #8
  %77 = icmp ne i32 %76, 0
  br i1 %77, label %79, label %78

78:                                               ; preds = %74
  store i32 15, ptr %2, align 4
  br label %90

79:                                               ; preds = %74
  %80 = load ptr, ptr %4, align 8
  %81 = call i32 @strcmp(ptr noundef %80, ptr noundef @.str.13) #8
  %82 = icmp ne i32 %81, 0
  br i1 %82, label %84, label %83

83:                                               ; preds = %79
  store i32 17, ptr %2, align 4
  br label %90

84:                                               ; preds = %79
  %85 = load ptr, ptr %4, align 8
  %86 = call i32 @strcmp(ptr noundef %85, ptr noundef @.str.14) #8
  %87 = icmp ne i32 %86, 0
  br i1 %87, label %89, label %88

88:                                               ; preds = %84
  store i32 18, ptr %2, align 4
  br label %90

89:                                               ; preds = %84
  store i32 19, ptr %2, align 4
  br label %90

90:                                               ; preds = %89, %88, %83, %78, %73, %68, %63, %58, %53, %48, %43, %38, %33, %28, %23, %18, %13, %7
  %91 = load i32, ptr %2, align 4
  ret i32 %91
}