; Function Attrs: nounwind uwtable
define range(i32 0, 20) i32 @Io_ReadFileType(ptr noundef %0) local_unnamed_addr #0 {
  %2 = icmp eq ptr %0, null
  br i1 %2, label %.tail34, label %3

3:                                                ; preds = %1
  %4 = tail call ptr @Extra_FileNameExtension(ptr noundef nonnull %0) #14
  %5 = icmp eq ptr %4, null
  br i1 %5, label %.tail34, label %6

6:                                                ; preds = %3
  %7 = tail call i32 @strcmp(ptr noundef nonnull dereferenceable(1) %4, ptr noundef nonnull dereferenceable(4) @.str) #15
  %.not = icmp eq i32 %7, 0
  br i1 %.not, label %.tail34, label %8

8:                                                ; preds = %6
  %9 = tail call i32 @strcmp(ptr noundef nonnull dereferenceable(1) %4, ptr noundef nonnull dereferenceable(4) @.str.1) #15
  %.not20 = icmp eq i32 %9, 0
  br i1 %.not20, label %.tail34, label %10

10:                                               ; preds = %8
  %11 = tail call i32 @strcmp(ptr noundef nonnull dereferenceable(1) %4, ptr noundef nonnull dereferenceable(6) @.str.2) #15
  %.not21 = icmp eq i32 %11, 0
  br i1 %.not21, label %.tail34, label %12

12:                                               ; preds = %10
  %13 = tail call i32 @strcmp(ptr noundef nonnull dereferenceable(1) %4, ptr noundef nonnull dereferenceable(5) @.str.3) #15
  %.not22 = icmp eq i32 %13, 0
  br i1 %.not22, label %.tail34, label %14

14:                                               ; preds = %12
  %15 = tail call i32 @strcmp(ptr noundef nonnull dereferenceable(1) %4, ptr noundef nonnull dereferenceable(6) @.str.4) #15
  %.not23 = icmp eq i32 %15, 0
  br i1 %.not23, label %.tail34, label %16

16:                                               ; preds = %14
  %17 = tail call i32 @strcmp(ptr noundef nonnull dereferenceable(1) %4, ptr noundef nonnull dereferenceable(4) @.str.5) #15
  %.not24 = icmp eq i32 %17, 0
  br i1 %.not24, label %.tail34, label %18

18:                                               ; preds = %16
  %19 = tail call i32 @strcmp(ptr noundef nonnull dereferenceable(1) %4, ptr noundef nonnull dereferenceable(4) @.str.6) #15
  %.not25 = icmp eq i32 %19, 0
  br i1 %.not25, label %.tail34, label %20

20:                                               ; preds = %18
  %21 = tail call i32 @strcmp(ptr noundef nonnull dereferenceable(1) %4, ptr noundef nonnull dereferenceable(5) @.str.7) #15
  %.not26 = icmp eq i32 %21, 0
  br i1 %.not26, label %.tail34, label %22

22:                                               ; preds = %20
  %23 = tail call i32 @strcmp(ptr noundef nonnull dereferenceable(1) %4, ptr noundef nonnull dereferenceable(4) @.str.8) #15
  %.not27 = icmp eq i32 %23, 0
  br i1 %.not27, label %.tail34, label %24

24:                                               ; preds = %22
  %25 = tail call i32 @strcmp(ptr noundef nonnull dereferenceable(1) %4, ptr noundef nonnull dereferenceable(4) @.str.9) #15
  %.not28 = icmp eq i32 %25, 0
  br i1 %.not28, label %.tail34, label %26

26:                                               ; preds = %24
  %27 = tail call i32 @strcmp(ptr noundef nonnull dereferenceable(1) %4, ptr noundef nonnull dereferenceable(5) @.str.10) #15
  %.not29 = icmp eq i32 %27, 0
  br i1 %.not29, label %.tail34, label %sub_0

sub_0:                                            ; preds = %26
  %28 = load i8, ptr %4, align 1
  %.not38 = icmp eq i8 %28, 109
  br i1 %.not38, label %sub_1, label %.tail.thread

sub_1:                                            ; preds = %sub_0
  %29 = getelementptr inbounds nuw i8, ptr %4, i64 1
  %30 = load i8, ptr %29, align 1
  %.not39 = icmp eq i8 %30, 118
  br i1 %.not39, label %.tail, label %.tail.thread

.tail:                                            ; preds = %sub_1
  %31 = getelementptr inbounds nuw i8, ptr %4, i64 2
  %32 = load i8, ptr %31, align 1
  %33 = icmp eq i8 %32, 0
  br i1 %33, label %.tail34, label %.tail.thread

.tail.thread:                                     ; preds = %sub_1, %sub_0, %.tail
  %34 = tail call i32 @strcmp(ptr noundef nonnull dereferenceable(1) %4, ptr noundef nonnull dereferenceable(4) @.str.12) #15
  %.not31 = icmp eq i32 %34, 0
  br i1 %.not31, label %.tail34, label %35

35:                                               ; preds = %.tail.thread
  %36 = tail call i32 @strcmp(ptr noundef nonnull dereferenceable(1) %4, ptr noundef nonnull dereferenceable(4) @.str.13) #15
  %.not32 = icmp eq i32 %36, 0
  br i1 %.not32, label %.tail34, label %sub_035

sub_035:                                          ; preds = %35
  %.not40 = icmp eq i8 %28, 118
  br i1 %.not40, label %sub_136, label %.tail34

sub_136:                                          ; preds = %sub_035
  %37 = getelementptr inbounds nuw i8, ptr %4, i64 1
  %38 = load i8, ptr %37, align 1
  %39 = icmp eq i8 %38, 0
  %40 = select i1 %39, i32 18, i32 19
  br label %.tail34

.tail34:                                          ; preds = %sub_136, %sub_035, %35, %.tail.thread, %.tail, %26, %24, %22, %20, %18, %16, %14, %12, %10, %8, %6, %3, %1
  %.0 = phi i32 [ 0, %1 ], [ 0, %3 ], [ 1, %6 ], [ 2, %8 ], [ 3, %10 ], [ 4, %12 ], [ 6, %14 ], [ 8, %16 ], [ 9, %18 ], [ 10, %20 ], [ 11, %22 ], [ 12, %24 ], [ 14, %26 ], [ 5, %.tail ], [ 15, %.tail.thread ], [ 17, %35 ], [ 19, %sub_035 ], [ %40, %sub_136 ]
  ret i32 %.0
}